target datalayout = "e-m:e-p270:32:32-p271:32:32-p272:64:64-i64:64-i128:128-f80:128-n8:16:32:64-S128"
target triple = "x86_64-pc-linux-gnu"

@.str.30 = private unnamed_addr constant [32 x i8] c"../openssl/test/endecode_test.c\00", align 1
@bnctx = internal global ptr null, align 8
@.str.249 = private unnamed_addr constant [22 x i8] c"a = BN_CTX_get(bnctx)\00", align 1
@.str.250 = private unnamed_addr constant [22 x i8] c"b = BN_CTX_get(bnctx)\00", align 1
@.str.252 = private unnamed_addr constant [26 x i8] c"order = BN_CTX_get(bnctx)\00", align 1
@.str.254 = private unnamed_addr constant [37 x i8] c"BN_bin2bn(a_data, sizeof(a_data), a)\00", align 1
@.str.255 = private unnamed_addr constant [37 x i8] c"BN_bin2bn(b_data, sizeof(b_data), b)\00", align 1
@.str.256 = private unnamed_addr constant [49 x i8] c"BN_bin2bn(order_data, sizeof(order_data), order)\00", align 1
@.str.258 = private unnamed_addr constant [11 x i8] c"field-type\00", align 1
@.str.261 = private unnamed_addr constant [2 x i8] c"p\00", align 1
@.str.262 = private unnamed_addr constant [53 x i8] c"OSSL_PARAM_BLD_push_BN(bld, OSSL_PKEY_PARAM_EC_A, a)\00", align 1
@.str.263 = private unnamed_addr constant [2 x i8] c"a\00", align 1
@.str.264 = private unnamed_addr constant [53 x i8] c"OSSL_PARAM_BLD_push_BN(bld, OSSL_PKEY_PARAM_EC_B, b)\00", align 1
@.str.265 = private unnamed_addr constant [2 x i8] c"b\00", align 1
@.str.266 = private unnamed_addr constant [61 x i8] c"OSSL_PARAM_BLD_push_BN(bld, OSSL_PKEY_PARAM_EC_ORDER, order)\00", align 1
@.str.267 = private unnamed_addr constant [6 x i8] c"order\00", align 1
@.str.268 = private unnamed_addr constant [82 x i8] c"OSSL_PARAM_BLD_push_octet_string(bld, OSSL_PKEY_PARAM_EC_GENERATOR, gen, gen_len)\00", align 1
@.str.269 = private unnamed_addr constant [10 x i8] c"generator\00", align 1
@.str.272 = private unnamed_addr constant [9 x i8] c"cofactor\00", align 1
@do_create_ec_explicit_trinomial_params.poly_data = internal constant [30 x i8] c"\02\00\00\00\00\00\00\00\00\00\00\00\00\00\00\00\00\00\00\00\04\00\00\00\00\00\00\00\00\01", align 16
@do_create_ec_explicit_trinomial_params.a_data = internal constant [30 x i8] zeroinitializer, align 16
@do_create_ec_explicit_trinomial_params.b_data = internal constant [30 x i8] c"\00\00\00\00\00\00\00\00\00\00\00\00\00\00\00\00\00\00\00\00\00\00\00\00\00\00\00\00\00\01", align 16
@do_create_ec_explicit_trinomial_params.order_data = internal constant [30 x i8] c"\00\80\00\00\00\00\00\00\00\00\00\00\00\00\00\06\9D[\B9\15\BC\D4n\FB\1A\D5\F1s\AB\DF", align 16
@do_create_ec_explicit_trinomial_params.cofactor_data = internal constant [1 x i8] c"\04", align 1
@.str.273 = private unnamed_addr constant [25 x i8] c"poly = BN_CTX_get(bnctx)\00", align 1
@.str.274 = private unnamed_addr constant [29 x i8] c"cofactor = BN_CTX_get(bnctx)\00", align 1
@.str.275 = private unnamed_addr constant [46 x i8] c"BN_bin2bn(poly_data, sizeof(poly_data), poly)\00", align 1
@.str.276 = private unnamed_addr constant [58 x i8] c"BN_bin2bn(cofactor_data, sizeof(cofactor_data), cofactor)\00", align 1
@.str.277 = private unnamed_addr constant [106 x i8] c"OSSL_PARAM_BLD_push_utf8_string(bld, OSSL_PKEY_PARAM_EC_FIELD_TYPE, SN_X9_62_characteristic_two_field, 0)\00", align 1
@.str.278 = private unnamed_addr constant [25 x i8] c"characteristic-two-field\00", align 1
@.str.279 = private unnamed_addr constant [56 x i8] c"OSSL_PARAM_BLD_push_BN(bld, OSSL_PKEY_PARAM_EC_P, poly)\00", align 1
@.str.280 = private unnamed_addr constant [67 x i8] c"OSSL_PARAM_BLD_push_BN(bld, OSSL_PKEY_PARAM_EC_COFACTOR, cofactor)\00", align 1

; Function Attrs: nounwind uwtable
define internal i32 @do_create_ec_explicit_trinomial_params(ptr noundef %0, ptr noundef %1, i64 noundef %2) #0 {
  %4 = alloca ptr, align 8
  %5 = alloca ptr, align 8
  %6 = alloca i64, align 8
  %7 = alloca ptr, align 8
  %8 = alloca ptr, align 8
  %9 = alloca ptr, align 8
  %10 = alloca ptr, align 8
  %11 = alloca ptr, align 8
  store ptr %0, ptr %4, align 8, !tbaa !19
  store ptr %1, ptr %5, align 8, !tbaa !4
  store i64 %2, ptr %6, align 8, !tbaa !27
  call void @llvm.lifetime.start.p0(i64 8, ptr %7) #7
  call void @llvm.lifetime.start.p0(i64 8, ptr %8) #7
  call void @llvm.lifetime.start.p0(i64 8, ptr %9) #7
  call void @llvm.lifetime.start.p0(i64 8, ptr %10) #7
  call void @llvm.lifetime.start.p0(i64 8, ptr %11) #7
  %12 = load ptr, ptr @bnctx, align 8, !tbaa !17
  %13 = call ptr @BN_CTX_get(ptr noundef %12)
  store ptr %13, ptr %7, align 8, !tbaa !29
  %14 = call i32 @test_ptr(ptr noundef @.str.30, i32 noundef 1224, ptr noundef @.str.249, ptr noundef %13)
  %15 = icmp ne i32 %14, 0
  br i1 %15, label %16, label %117

16:                                               ; preds = %3
  %17 = load ptr, ptr @bnctx, align 8, !tbaa !17
  %18 = call ptr @BN_CTX_get(ptr noundef %17)
  store ptr %18, ptr %8, align 8, !tbaa !29
  %19 = call i32 @test_ptr(ptr noundef @.str.30, i32 noundef 1225, ptr noundef @.str.250, ptr noundef %18)
  %20 = icmp ne i32 %19, 0
  br i1 %20, label %21, label %117

21:                                               ; preds = %16
  %22 = load ptr, ptr @bnctx, align 8, !tbaa !17
  %23 = call ptr @BN_CTX_get(ptr noundef %22)
  store ptr %23, ptr %9, align 8, !tbaa !29
  %24 = call i32 @test_ptr(ptr noundef @.str.30, i32 noundef 1226, ptr noundef @.str.273, ptr noundef %23)
  %25 = icmp ne i32 %24, 0
  br i1 %25, label %26, label %117

26:                                               ; preds = %21
  %27 = load ptr, ptr @bnctx, align 8, !tbaa !17
  %28 = call ptr @BN_CTX_get(ptr noundef %27)
  store ptr %28, ptr %10, align 8, !tbaa !29
  %29 = call i32 @test_ptr(ptr noundef @.str.30, i32 noundef 1227, ptr noundef @.str.252, ptr noundef %28)
  %30 = icmp ne i32 %29, 0
  br i1 %30, label %31, label %117

31:                                               ; preds = %26
  %32 = load ptr, ptr @bnctx, align 8, !tbaa !17
  %33 = call ptr @BN_CTX_get(ptr noundef %32)
  store ptr %33, ptr %11, align 8, !tbaa !29
  %34 = call i32 @test_ptr(ptr noundef @.str.30, i32 noundef 1228, ptr noundef @.str.274, ptr noundef %33)
  %35 = icmp ne i32 %34, 0
  br i1 %35, label %36, label %117

36:                                               ; preds = %31
  %37 = load ptr, ptr %9, align 8, !tbaa !29
  %38 = call ptr @BN_bin2bn(ptr noundef @do_create_ec_explicit_trinomial_params.poly_data, i32 noundef 30, ptr noundef %37)
  %39 = call i32 @test_ptr(ptr noundef @.str.30, i32 noundef 1229, ptr noundef @.str.275, ptr noundef %38)
  %40 = icmp ne i32 %39, 0
  br i1 %40, label %41, label %117

41:                                               ; preds = %36
  %42 = load ptr, ptr %7, align 8, !tbaa !29
  %43 = call ptr @BN_bin2bn(ptr noundef @do_create_ec_explicit_trinomial_params.a_data, i32 noundef 30, ptr noundef %42)
  %44 = call i32 @test_ptr(ptr noundef @.str.30, i32 noundef 1230, ptr noundef @.str.254, ptr noundef %43)
  %45 = icmp ne i32 %44, 0
  br i1 %45, label %46, label %117

46:                                               ; preds = %41
  %47 = load ptr, ptr %8, align 8, !tbaa !29
  %48 = call ptr @BN_bin2bn(ptr noundef @do_create_ec_explicit_trinomial_params.b_data, i32 noundef 30, ptr noundef %47)
  %49 = call i32 @test_ptr(ptr noundef @.str.30, i32 noundef 1231, ptr noundef @.str.255, ptr noundef %48)
  %50 = icmp ne i32 %49, 0
  br i1 %50, label %51, label %117

51:                                               ; preds = %46
  %52 = load ptr, ptr %10, align 8, !tbaa !29
  %53 = call ptr @BN_bin2bn(ptr noundef @do_create_ec_explicit_trinomial_params.order_data, i32 noundef 30, ptr noundef %52)
  %54 = call i32 @test_ptr(ptr noundef @.str.30, i32 noundef 1232, ptr noundef @.str.256, ptr noundef %53)
  %55 = icmp ne i32 %54, 0
  br i1 %55, label %56, label %117

56:                                               ; preds = %51
  %57 = load ptr, ptr %11, align 8, !tbaa !29
  %58 = call ptr @BN_bin2bn(ptr noundef @do_create_ec_explicit_trinomial_params.cofactor_data, i32 noundef 1, ptr noundef %57)
  %59 = call i32 @test_ptr(ptr noundef @.str.30, i32 noundef 1233, ptr noundef @.str.276, ptr noundef %58)
  %60 = icmp ne i32 %59, 0
  br i1 %60, label %61, label %117

61:                                               ; preds = %56
  %62 = load ptr, ptr %4, align 8, !tbaa !19
  %63 = call i32 @OSSL_PARAM_BLD_push_utf8_string(ptr noundef %62, ptr noundef @.str.258, ptr noundef @.str.278, i64 noundef 0)
  %64 = icmp ne i32 %63, 0
  %65 = zext i1 %64 to i32
  %66 = call i32 @test_true(ptr noundef @.str.30, i32 noundef 1236, ptr noundef @.str.277, i32 noundef %65)
  %67 = icmp ne i32 %66, 0
  br i1 %67, label %68, label %117

68:                                               ; preds = %61
  %69 = load ptr, ptr %4, align 8, !tbaa !19
  %70 = load ptr, ptr %9, align 8, !tbaa !29
  %71 = call i32 @OSSL_PARAM_BLD_push_BN(ptr noundef %69, ptr noundef @.str.261, ptr noundef %70)
  %72 = icmp ne i32 %71, 0
  %73 = zext i1 %72 to i32
  %74 = call i32 @test_true(ptr noundef @.str.30, i32 noundef 1237, ptr noundef @.str.279, i32 noundef %73)
  %75 = icmp ne i32 %74, 0
  br i1 %75, label %76, label %117

76:                                               ; preds = %68
  %77 = load ptr, ptr %4, align 8, !tbaa !19
  %78 = load ptr, ptr %7, align 8, !tbaa !29
  %79 = call i32 @OSSL_PARAM_BLD_push_BN(ptr noundef %77, ptr noundef @.str.263, ptr noundef %78)
  %80 = icmp ne i32 %79, 0
  %81 = zext i1 %80 to i32
  %82 = call i32 @test_true(ptr noundef @.str.30, i32 noundef 1238, ptr noundef @.str.262, i32 noundef %81)
  %83 = icmp ne i32 %82, 0
  br i1 %83, label %84, label %117

84:                                               ; preds = %76
  %85 = load ptr, ptr %4, align 8, !tbaa !19
  %86 = load ptr, ptr %8, align 8, !tbaa !29
  %87 = call i32 @OSSL_PARAM_BLD_push_BN(ptr noundef %85, ptr noundef @.str.265, ptr noundef %86)
  %88 = icmp ne i32 %87, 0
  %89 = zext i1 %88 to i32
  %90 = call i32 @test_true(ptr noundef @.str.30, i32 noundef 1239, ptr noundef @.str.264, i32 noundef %89)
  %91 = icmp ne i32 %90, 0
  br i1 %91, label %92, label %117

92:                                               ; preds = %84
  %93 = load ptr, ptr %4, align 8, !tbaa !19
  %94 = load ptr, ptr %10, align 8, !tbaa !29
  %95 = call i32 @OSSL_PARAM_BLD_push_BN(ptr noundef %93, ptr noundef @.str.267, ptr noundef %94)
  %96 = icmp ne i32 %95, 0
  %97 = zext i1 %96 to i32
  %98 = call i32 @test_true(ptr noundef @.str.30, i32 noundef 1241, ptr noundef @.str.266, i32 noundef %97)
  %99 = icmp ne i32 %98, 0
  br i1 %99, label %100, label %117

100:                                              ; preds = %92
  %101 = load ptr, ptr %4, align 8, !tbaa !19
  %102 = load ptr, ptr %5, align 8, !tbaa !4
  %103 = load i64, ptr %6, align 8, !tbaa !27
  %104 = call i32 @OSSL_PARAM_BLD_push_octet_string(ptr noundef %101, ptr noundef @.str.269, ptr noundef %102, i64 noundef %103)
  %105 = icmp ne i32 %104, 0
  %106 = zext i1 %105 to i32
  %107 = call i32 @test_true(ptr noundef @.str.30, i32 noundef 1243, ptr noundef @.str.268, i32 noundef %106)
  %108 = icmp ne i32 %107, 0
  br i1 %108, label %109, label %117

109:                                              ; preds = %100
  %110 = load ptr, ptr %4, align 8, !tbaa !19
  %111 = load ptr, ptr %11, align 8, !tbaa !29
  %112 = call i32 @OSSL_PARAM_BLD_push_BN(ptr noundef %110, ptr noundef @.str.272, ptr noundef %111)
  %113 = icmp ne i32 %112, 0
  %114 = zext i1 %113 to i32
  %115 = call i32 @test_true(ptr noundef @.str.30, i32 noundef 1245, ptr noundef @.str.280, i32 noundef %114)
  %116 = icmp ne i32 %115, 0
  br label %117

117:                                              ; preds = %109, %100, %92, %84, %76, %68, %61, %56, %51, %46, %41, %36, %31, %26, %21, %16, %3
  %118 = phi i1 [ false, %100 ], [ false, %92 ], [ false, %84 ], [ false, %76 ], [ false, %68 ], [ false, %61 ], [ false, %56 ], [ false, %51 ], [ false, %46 ], [ false, %41 ], [ false, %36 ], [ false, %31 ], [ false, %26 ], [ false, %21 ], [ false, %16 ], [ false, %3 ], [ %116, %109 ]
  %119 = zext i1 %118 to i32
  call void @llvm.lifetime.end.p0(i64 8, ptr %11) #7
  call void @llvm.lifetime.end.p0(i64 8, ptr %10) #7
  call void @llvm.lifetime.end.p0(i64 8, ptr %9) #7
  call void @llvm.lifetime.end.p0(i64 8, ptr %8) #7
  call void @llvm.lifetime.end.p0(i64 8, ptr %7) #7
  ret i32 %119
}