; Function Attrs: nounwind uwtable
define internal fastcc range(i32 0, 2) i32 @do_create_ec_explicit_trinomial_params(ptr noundef %0, ptr noundef %1) unnamed_addr #1 {
  %3 = load ptr, ptr @bnctx, align 8, !tbaa !15
  %4 = tail call ptr @BN_CTX_get(ptr noundef %3) #8
  %5 = tail call i32 @test_ptr(ptr noundef nonnull @.str.30, i32 noundef 1224, ptr noundef nonnull @.str.249, ptr noundef %4) #8
  %.not = icmp eq i32 %5, 0
  br i1 %.not, label %74, label %6

6:                                                ; preds = %2
  %7 = load ptr, ptr @bnctx, align 8, !tbaa !15
  %8 = tail call ptr @BN_CTX_get(ptr noundef %7) #8
  %9 = tail call i32 @test_ptr(ptr noundef nonnull @.str.30, i32 noundef 1225, ptr noundef nonnull @.str.250, ptr noundef %8) #8
  %.not18 = icmp eq i32 %9, 0
  br i1 %.not18, label %74, label %10

10:                                               ; preds = %6
  %11 = load ptr, ptr @bnctx, align 8, !tbaa !15
  %12 = tail call ptr @BN_CTX_get(ptr noundef %11) #8
  %13 = tail call i32 @test_ptr(ptr noundef nonnull @.str.30, i32 noundef 1226, ptr noundef nonnull @.str.273, ptr noundef %12) #8
  %.not19 = icmp eq i32 %13, 0
  br i1 %.not19, label %74, label %14

14:                                               ; preds = %10
  %15 = load ptr, ptr @bnctx, align 8, !tbaa !15
  %16 = tail call ptr @BN_CTX_get(ptr noundef %15) #8
  %17 = tail call i32 @test_ptr(ptr noundef nonnull @.str.30, i32 noundef 1227, ptr noundef nonnull @.str.252, ptr noundef %16) #8
  %.not20 = icmp eq i32 %17, 0
  br i1 %.not20, label %74, label %18

18:                                               ; preds = %14
  %19 = load ptr, ptr @bnctx, align 8, !tbaa !15
  %20 = tail call ptr @BN_CTX_get(ptr noundef %19) #8
  %21 = tail call i32 @test_ptr(ptr noundef nonnull @.str.30, i32 noundef 1228, ptr noundef nonnull @.str.274, ptr noundef %20) #8
  %.not21 = icmp eq i32 %21, 0
  br i1 %.not21, label %74, label %22

22:                                               ; preds = %18
  %23 = tail call ptr @BN_bin2bn(ptr noundef nonnull @do_create_ec_explicit_trinomial_params.poly_data, i32 noundef 30, ptr noundef %12) #8
  %24 = tail call i32 @test_ptr(ptr noundef nonnull @.str.30, i32 noundef 1229, ptr noundef nonnull @.str.275, ptr noundef %23) #8
  %.not22 = icmp eq i32 %24, 0
  br i1 %.not22, label %74, label %25

25:                                               ; preds = %22
  %26 = tail call ptr @BN_bin2bn(ptr noundef nonnull @do_create_ec_explicit_trinomial_params.a_data, i32 noundef 30, ptr noundef %4) #8
  %27 = tail call i32 @test_ptr(ptr noundef nonnull @.str.30, i32 noundef 1230, ptr noundef nonnull @.str.254, ptr noundef %26) #8
  %.not23 = icmp eq i32 %27, 0
  br i1 %.not23, label %74, label %28

28:                                               ; preds = %25
  %29 = tail call ptr @BN_bin2bn(ptr noundef nonnull @do_create_ec_explicit_trinomial_params.b_data, i32 noundef 30, ptr noundef %8) #8
  %30 = tail call i32 @test_ptr(ptr noundef nonnull @.str.30, i32 noundef 1231, ptr noundef nonnull @.str.255, ptr noundef %29) #8
  %.not24 = icmp eq i32 %30, 0
  br i1 %.not24, label %74, label %31

31:                                               ; preds = %28
  %32 = tail call ptr @BN_bin2bn(ptr noundef nonnull @do_create_ec_explicit_trinomial_params.order_data, i32 noundef 30, ptr noundef %16) #8
  %33 = tail call i32 @test_ptr(ptr noundef nonnull @.str.30, i32 noundef 1232, ptr noundef nonnull @.str.256, ptr noundef %32) #8
  %.not25 = icmp eq i32 %33, 0
  br i1 %.not25, label %74, label %34

34:                                               ; preds = %31
  %35 = tail call ptr @BN_bin2bn(ptr noundef nonnull @do_create_ec_explicit_trinomial_params.cofactor_data, i32 noundef 1, ptr noundef %20) #8
  %36 = tail call i32 @test_ptr(ptr noundef nonnull @.str.30, i32 noundef 1233, ptr noundef nonnull @.str.276, ptr noundef %35) #8
  %.not26 = icmp eq i32 %36, 0
  br i1 %.not26, label %74, label %37

37:                                               ; preds = %34
  %38 = tail call i32 @OSSL_PARAM_BLD_push_utf8_string(ptr noundef %0, ptr noundef nonnull @.str.258, ptr noundef nonnull @.str.278, i64 noundef 0) #8
  %39 = icmp ne i32 %38, 0
  %40 = zext i1 %39 to i32
  %41 = tail call i32 @test_true(ptr noundef nonnull @.str.30, i32 noundef 1236, ptr noundef nonnull @.str.277, i32 noundef %40) #8
  %.not27 = icmp eq i32 %41, 0
  br i1 %.not27, label %74, label %42

42:                                               ; preds = %37
  %43 = tail call i32 @OSSL_PARAM_BLD_push_BN(ptr noundef %0, ptr noundef nonnull @.str.261, ptr noundef %12) #8
  %44 = icmp ne i32 %43, 0
  %45 = zext i1 %44 to i32
  %46 = tail call i32 @test_true(ptr noundef nonnull @.str.30, i32 noundef 1237, ptr noundef nonnull @.str.279, i32 noundef %45) #8
  %.not28 = icmp eq i32 %46, 0
  br i1 %.not28, label %74, label %47

47:                                               ; preds = %42
  %48 = tail call i32 @OSSL_PARAM_BLD_push_BN(ptr noundef %0, ptr noundef nonnull @.str.263, ptr noundef %4) #8
  %49 = icmp ne i32 %48, 0
  %50 = zext i1 %49 to i32
  %51 = tail call i32 @test_true(ptr noundef nonnull @.str.30, i32 noundef 1238, ptr noundef nonnull @.str.262, i32 noundef %50) #8
  %.not29 = icmp eq i32 %51, 0
  br i1 %.not29, label %74, label %52

52:                                               ; preds = %47
  %53 = tail call i32 @OSSL_PARAM_BLD_push_BN(ptr noundef %0, ptr noundef nonnull @.str.265, ptr noundef %8) #8
  %54 = icmp ne i32 %53, 0
  %55 = zext i1 %54 to i32
  %56 = tail call i32 @test_true(ptr noundef nonnull @.str.30, i32 noundef 1239, ptr noundef nonnull @.str.264, i32 noundef %55) #8
  %.not30 = icmp eq i32 %56, 0
  br i1 %.not30, label %74, label %57

57:                                               ; preds = %52
  %58 = tail call i32 @OSSL_PARAM_BLD_push_BN(ptr noundef %0, ptr noundef nonnull @.str.267, ptr noundef %16) #8
  %59 = icmp ne i32 %58, 0
  %60 = zext i1 %59 to i32
  %61 = tail call i32 @test_true(ptr noundef nonnull @.str.30, i32 noundef 1241, ptr noundef nonnull @.str.266, i32 noundef %60) #8
  %.not31 = icmp eq i32 %61, 0
  br i1 %.not31, label %74, label %62

62:                                               ; preds = %57
  %63 = tail call i32 @OSSL_PARAM_BLD_push_octet_string(ptr noundef %0, ptr noundef nonnull @.str.269, ptr noundef %1, i64 noundef 61) #8
  %64 = icmp ne i32 %63, 0
  %65 = zext i1 %64 to i32
  %66 = tail call i32 @test_true(ptr noundef nonnull @.str.30, i32 noundef 1243, ptr noundef nonnull @.str.268, i32 noundef %65) #8
  %.not32 = icmp eq i32 %66, 0
  br i1 %.not32, label %74, label %67

67:                                               ; preds = %62
  %68 = tail call i32 @OSSL_PARAM_BLD_push_BN(ptr noundef %0, ptr noundef nonnull @.str.272, ptr noundef %20) #8
  %69 = icmp ne i32 %68, 0
  %70 = zext i1 %69 to i32
  %71 = tail call i32 @test_true(ptr noundef nonnull @.str.30, i32 noundef 1245, ptr noundef nonnull @.str.280, i32 noundef %70) #8
  %72 = icmp ne i32 %71, 0
  %73 = zext i1 %72 to i32
  br label %74

74:                                               ; preds = %67, %62, %57, %52, %47, %42, %37, %34, %31, %28, %25, %22, %18, %14, %10, %6, %2
  %75 = phi i32 [ 0, %62 ], [ 0, %57 ], [ 0, %52 ], [ 0, %47 ], [ 0, %42 ], [ 0, %37 ], [ 0, %34 ], [ 0, %31 ], [ 0, %28 ], [ 0, %25 ], [ 0, %22 ], [ 0, %18 ], [ 0, %14 ], [ 0, %10 ], [ 0, %6 ], [ 0, %2 ], [ %73, %67 ]
  ret i32 %75
}